; Function Attrs: nounwind uwtable
define internal fastcc range(i64 -2147483648, 2147483648) i64 @optsize(ptr noundef %0, i8 noundef signext %1, ptr noundef nonnull captures(none) %2) unnamed_addr #0 {
  switch i8 %1, label %74 [
    i8 66, label %getnum.exit
    i8 98, label %getnum.exit
    i8 72, label %4
    i8 104, label %4
    i8 76, label %5
    i8 108, label %5
    i8 84, label %5
    i8 102, label %6
    i8 100, label %5
    i8 120, label %getnum.exit
    i8 99, label %7
    i8 105, label %39
    i8 73, label %39
  ]

4:                                                ; preds = %3, %3
  br label %getnum.exit

5:                                                ; preds = %3, %3, %3, %3
  br label %getnum.exit

6:                                                ; preds = %3
  br label %getnum.exit

7:                                                ; preds = %3
  %8 = tail call ptr @__ctype_b_loc() #8
  %9 = load ptr, ptr %8, align 8, !tbaa !29
  %10 = load ptr, ptr %2, align 8, !tbaa !11
  %11 = load i8, ptr %10, align 1, !tbaa !10
  %12 = sext i8 %11 to i64
  %13 = getelementptr inbounds i16, ptr %9, i64 %12
  %14 = load i16, ptr %13, align 2, !tbaa !31
  %15 = and i16 %14, 2048
  %.not.i = icmp eq i16 %15, 0
  br i1 %.not.i, label %getnum.exit, label %.preheader.i

.preheader.i:                                     ; preds = %7, %25
  %16 = phi ptr [ %26, %25 ], [ %9, %7 ]
  %17 = phi i8 [ %33, %25 ], [ %11, %7 ]
  %18 = phi ptr [ %28, %25 ], [ %10, %7 ]
  %.0.i = phi i32 [ %32, %25 ], [ 0, %7 ]
  %19 = icmp sgt i32 %.0.i, 214748364
  %.pre14.i = mul nsw i32 %.0.i, 10
  br i1 %19, label %.preheader._crit_edge.i, label %20

20:                                               ; preds = %.preheader.i
  %21 = sext i8 %17 to i32
  %22 = sub i32 -2147483601, %21
  %23 = icmp sgt i32 %.pre14.i, %22
  br i1 %23, label %.preheader._crit_edge.i, label %25

.preheader._crit_edge.i:                          ; preds = %20, %.preheader.i
  %24 = tail call i32 (ptr, ptr, ...) @luaL_error(ptr noundef %0, ptr noundef nonnull @.str.6) #7
  %.pre.i = load ptr, ptr %2, align 8, !tbaa !11
  %.pre12.i = load ptr, ptr %8, align 8, !tbaa !29
  br label %25

25:                                               ; preds = %.preheader._crit_edge.i, %20
  %26 = phi ptr [ %.pre12.i, %.preheader._crit_edge.i ], [ %16, %20 ]
  %27 = phi ptr [ %.pre.i, %.preheader._crit_edge.i ], [ %18, %20 ]
  %28 = getelementptr inbounds nuw i8, ptr %27, i64 1
  store ptr %28, ptr %2, align 8, !tbaa !11
  %29 = load i8, ptr %27, align 1, !tbaa !10
  %30 = sext i8 %29 to i32
  %31 = add i32 %.pre14.i, -48
  %32 = add i32 %31, %30
  %33 = load i8, ptr %28, align 1, !tbaa !10
  %34 = sext i8 %33 to i64
  %35 = getelementptr inbounds i16, ptr %26, i64 %34
  %36 = load i16, ptr %35, align 2, !tbaa !31
  %37 = and i16 %36, 2048
  %.not11.i = icmp eq i16 %37, 0
  br i1 %.not11.i, label %getnum.exit.loopexit, label %.preheader.i, !llvm.loop !37

getnum.exit.loopexit:                             ; preds = %25
  %38 = sext i32 %32 to i64
  br label %getnum.exit

39:                                               ; preds = %3, %3
  %40 = tail call ptr @__ctype_b_loc() #8
  %41 = load ptr, ptr %40, align 8, !tbaa !29
  %42 = load ptr, ptr %2, align 8, !tbaa !11
  %43 = load i8, ptr %42, align 1, !tbaa !10
  %44 = sext i8 %43 to i64
  %45 = getelementptr inbounds i16, ptr %41, i64 %44
  %46 = load i16, ptr %45, align 2, !tbaa !31
  %47 = and i16 %46, 2048
  %.not.i10 = icmp eq i16 %47, 0
  br i1 %.not.i10, label %getnum.exit19.thread, label %.preheader.i11

.preheader.i11:                                   ; preds = %39, %57
  %48 = phi ptr [ %58, %57 ], [ %41, %39 ]
  %49 = phi i8 [ %65, %57 ], [ %43, %39 ]
  %50 = phi ptr [ %60, %57 ], [ %42, %39 ]
  %.0.i12 = phi i32 [ %64, %57 ], [ 0, %39 ]
  %51 = icmp sgt i32 %.0.i12, 214748364
  %.pre14.i13 = mul nsw i32 %.0.i12, 10
  br i1 %51, label %.preheader._crit_edge.i16, label %52

52:                                               ; preds = %.preheader.i11
  %53 = sext i8 %49 to i32
  %54 = sub i32 -2147483601, %53
  %55 = icmp sgt i32 %.pre14.i13, %54
  br i1 %55, label %.preheader._crit_edge.i16, label %57

.preheader._crit_edge.i16:                        ; preds = %52, %.preheader.i11
  %56 = tail call i32 (ptr, ptr, ...) @luaL_error(ptr noundef %0, ptr noundef nonnull @.str.6) #7
  %.pre.i17 = load ptr, ptr %2, align 8, !tbaa !11
  %.pre12.i18 = load ptr, ptr %40, align 8, !tbaa !29
  br label %57

57:                                               ; preds = %.preheader._crit_edge.i16, %52
  %58 = phi ptr [ %.pre12.i18, %.preheader._crit_edge.i16 ], [ %48, %52 ]
  %59 = phi ptr [ %.pre.i17, %.preheader._crit_edge.i16 ], [ %50, %52 ]
  %60 = getelementptr inbounds nuw i8, ptr %59, i64 1
  store ptr %60, ptr %2, align 8, !tbaa !11
  %61 = load i8, ptr %59, align 1, !tbaa !10
  %62 = sext i8 %61 to i32
  %63 = add i32 %.pre14.i13, -48
  %64 = add i32 %63, %62
  %65 = load i8, ptr %60, align 1, !tbaa !10
  %66 = sext i8 %65 to i64
  %67 = getelementptr inbounds i16, ptr %58, i64 %66
  %68 = load i16, ptr %67, align 2, !tbaa !31
  %69 = and i16 %68, 2048
  %.not11.i14 = icmp eq i16 %69, 0
  br i1 %.not11.i14, label %getnum.exit19, label %.preheader.i11, !llvm.loop !37

getnum.exit19:                                    ; preds = %57
  %70 = icmp sgt i32 %64, 32
  br i1 %70, label %71, label %getnum.exit19.thread

71:                                               ; preds = %getnum.exit19
  %72 = tail call i32 (ptr, ptr, ...) @luaL_error(ptr noundef %0, ptr noundef nonnull @.str.5, i32 noundef %64, i32 noundef 32) #7
  br label %getnum.exit19.thread

getnum.exit19.thread:                             ; preds = %39, %71, %getnum.exit19
  %.010.i1521 = phi i32 [ %64, %71 ], [ %64, %getnum.exit19 ], [ 4, %39 ]
  %73 = sext i32 %.010.i1521 to i64
  br label %getnum.exit

74:                                               ; preds = %3
  br label %getnum.exit

getnum.exit:                                      ; preds = %7, %getnum.exit.loopexit, %3, %3, %3, %74, %getnum.exit19.thread, %6, %5, %4
  %.0 = phi i64 [ 0, %74 ], [ %73, %getnum.exit19.thread ], [ 4, %6 ], [ 8, %5 ], [ 2, %4 ], [ 1, %3 ], [ 1, %3 ], [ 1, %3 ], [ 1, %7 ], [ %38, %getnum.exit.loopexit ]
  ret i64 %.0
}